target datalayout = "e-m:e-p270:32:32-p271:32:32-p272:64:64-i64:64-i128:128-f80:128-n8:16:32:64-S128"
target triple = "x86_64-pc-linux-gnu"

%"struct.std::atomic" = type { %"struct.std::__atomic_base" }
%"struct.std::__atomic_base" = type { i64 }
%"class.grpc_core::NoDestruct" = type { [29 x i8] }
%"struct.grpc_core::(anonymous namespace)::Experiments" = type { [29 x i8] }

@_ZN9grpc_core15ExperimentFlags17experiment_flags_E = global [8 x %"struct.std::atomic"] zeroinitializer, align 16
@_ZZN9grpc_core12_GLOBAL__N_120ExperimentsSingletonEvE11experiments = internal global %"class.grpc_core::NoDestruct" zeroinitializer, align 1
@_ZGVZN9grpc_core12_GLOBAL__N_120ExperimentsSingletonEvE11experiments = internal global i64 0, align 8

; Function Attrs: mustprogress nounwind uwtable
define internal noundef ptr @_ZN9grpc_core10NoDestructINS_12_GLOBAL__N_111ExperimentsEE3getEv(ptr noundef nonnull align 1 dereferenceable(29) %0) #1 align 2 {
  %2 = alloca ptr, align 8
  store ptr %0, ptr %2, align 8, !tbaa !94
  %3 = load ptr, ptr %2, align 8
  %4 = getelementptr inbounds nuw %"class.grpc_core::NoDestruct", ptr %3, i32 0, i32 0
  ret ptr %4
}

; Function Attrs: alwaysinline mustprogress nounwind uwtable
define internal void @_ZN9grpc_core9ConstructINS_12_GLOBAL__N_111ExperimentsEJS2_EEEvPT_DpOT0_(ptr noundef %0, ptr noundef nonnull align 1 dereferenceable(29) %1) #6 {
  %3 = alloca ptr, align 8
  %4 = alloca ptr, align 8
  store ptr %0, ptr %3, align 8, !tbaa !40
  store ptr %1, ptr %4, align 8, !tbaa !40
  %5 = load ptr, ptr %3, align 8, !tbaa !40
  %6 = load ptr, ptr %4, align 8, !tbaa !40
  call void @llvm.memcpy.p0.p0.i64(ptr align 1 %5, ptr align 1 %6, i64 29, i1 false), !tbaa.struct !3
  ret void
}

; Function Attrs: mustprogress nounwind uwtable
define linkonce_odr noundef i32 @_ZStanSt12memory_orderSt23__memory_order_modifier(i32 noundef %0, i32 noundef %1) #1 comdat {
  %3 = alloca i32, align 4
  %4 = alloca i32, align 4
  store i32 %0, ptr %3, align 4, !tbaa !47
  store i32 %1, ptr %4, align 4, !tbaa !92
  %5 = load i32, ptr %3, align 4, !tbaa !47
  %6 = load i32, ptr %4, align 4, !tbaa !92
  %7 = and i32 %5, %6
  ret i32 %7
}

; Function Attrs: mustprogress uwtable
define internal noundef nonnull align 1 dereferenceable(29) ptr @_ZN9grpc_core10NoDestructINS_12_GLOBAL__N_111ExperimentsEEdeEv(ptr noundef nonnull align 1 dereferenceable(29) %0) #0 align 2 {
  %2 = alloca ptr, align 8
  store ptr %0, ptr %2, align 8, !tbaa !94
  %3 = load ptr, ptr %2, align 8
  %4 = call noundef ptr @_ZN9grpc_core10NoDestructINS_12_GLOBAL__N_111ExperimentsEE3getEv(ptr noundef nonnull align 1 dereferenceable(29) %3)
  ret ptr %4
}

; Function Attrs: mustprogress uwtable
define internal void @_ZN9grpc_core10NoDestructINS_12_GLOBAL__N_111ExperimentsEEC2IJS2_EEEDpOT_(ptr noundef nonnull align 1 dereferenceable(29) %0, ptr noundef nonnull align 1 dereferenceable(29) %1) unnamed_addr #0 align 2 {
  %3 = alloca ptr, align 8
  %4 = alloca ptr, align 8
  store ptr %0, ptr %3, align 8, !tbaa !94
  store ptr %1, ptr %4, align 8, !tbaa !40
  %5 = load ptr, ptr %3, align 8
  %6 = getelementptr inbounds nuw %"class.grpc_core::NoDestruct", ptr %5, i32 0, i32 0
  %7 = load ptr, ptr %4, align 8, !tbaa !40
  call void @_ZN9grpc_core9ConstructINS_12_GLOBAL__N_111ExperimentsEJS2_EEEvPT_DpOT0_(ptr noundef %6, ptr noundef nonnull align 1 dereferenceable(29) %7)
  ret void
}

; Function Attrs: alwaysinline mustprogress nounwind uwtable
define linkonce_odr void @_ZNSt13__atomic_baseImE5storeEmSt12memory_order(ptr noundef nonnull align 8 dereferenceable(8) %0, i64 noundef %1, i32 noundef %2) #6 comdat align 2 {
  %4 = alloca ptr, align 8
  %5 = alloca i64, align 8
  %6 = alloca i32, align 4
  %7 = alloca i32, align 4
  %8 = alloca i64, align 8
  store ptr %0, ptr %4, align 8, !tbaa !45
  store i64 %1, ptr %5, align 8, !tbaa !7
  store i32 %2, ptr %6, align 4, !tbaa !47
  %9 = load ptr, ptr %4, align 8
  call void @llvm.lifetime.start.p0(i64 4, ptr %7) #17
  %10 = load i32, ptr %6, align 4, !tbaa !47
  %11 = call noundef i32 @_ZStanSt12memory_orderSt23__memory_order_modifier(i32 noundef %10, i32 noundef 65535)
  store i32 %11, ptr %7, align 4, !tbaa !47
  br label %12

12:                                               ; preds = %3
  br label %13

13:                                               ; preds = %12
  br label %14

14:                                               ; preds = %13
  br label %15

15:                                               ; preds = %14
  br label %16

16:                                               ; preds = %15
  br label %17

17:                                               ; preds = %16
  br label %18

18:                                               ; preds = %17
  br label %19

19:                                               ; preds = %18
  br label %20

20:                                               ; preds = %19
  %21 = getelementptr inbounds nuw %"struct.std::__atomic_base", ptr %9, i32 0, i32 0
  %22 = load i32, ptr %6, align 4, !tbaa !47
  %23 = load i64, ptr %5, align 8, !tbaa !7
  store i64 %23, ptr %8, align 8, !tbaa !7
  switch i32 %22, label %24 [
    i32 3, label %26
    i32 5, label %28
  ]

24:                                               ; preds = %20
  %25 = load i64, ptr %8, align 8
  store atomic i64 %25, ptr %21 monotonic, align 8
  br label %30

26:                                               ; preds = %20
  %27 = load i64, ptr %8, align 8
  store atomic i64 %27, ptr %21 release, align 8
  br label %30

28:                                               ; preds = %20
  %29 = load i64, ptr %8, align 8
  store atomic i64 %29, ptr %21 seq_cst, align 8
  br label %30

30:                                               ; preds = %28, %26, %24
  call void @llvm.lifetime.end.p0(i64 4, ptr %7) #17
  ret void
}

; Function Attrs: mustprogress uwtable
define internal noundef nonnull align 1 dereferenceable(29) ptr @_ZN9grpc_core12_GLOBAL__N_120ExperimentsSingletonEv() #0 personality ptr @__gxx_personality_v0 {
  %1 = alloca %"struct.grpc_core::(anonymous namespace)::Experiments", align 1
  %2 = alloca ptr, align 8
  %3 = alloca i32, align 4
  %4 = load atomic i8, ptr @_ZGVZN9grpc_core12_GLOBAL__N_120ExperimentsSingletonEvE11experiments acquire, align 8
  %5 = icmp eq i8 %4, 0
  br i1 %5, label %6, label %12, !prof !11

6:                                                ; preds = %0
  %7 = call i32 @__cxa_guard_acquire(ptr @_ZGVZN9grpc_core12_GLOBAL__N_120ExperimentsSingletonEvE11experiments) #17
  %8 = icmp ne i32 %7, 0
  br i1 %8, label %9, label %12

9:                                                ; preds = %6
  call void @llvm.lifetime.start.p0(i64 29, ptr %1) #17
  invoke void @_ZN9grpc_core12_GLOBAL__N_133LoadExperimentsFromConfigVariableEv(ptr dead_on_unwind writable sret(%"struct.grpc_core::(anonymous namespace)::Experiments") align 1 %1)
          to label %10 unwind label %14

10:                                               ; preds = %9
  invoke void @_ZN9grpc_core10NoDestructINS_12_GLOBAL__N_111ExperimentsEEC2IJS2_EEEDpOT_(ptr noundef nonnull align 1 dereferenceable(29) @_ZZN9grpc_core12_GLOBAL__N_120ExperimentsSingletonEvE11experiments, ptr noundef nonnull align 1 dereferenceable(29) %1)
          to label %11 unwind label %14

11:                                               ; preds = %10
  call void @llvm.lifetime.end.p0(i64 29, ptr %1) #17
  call void @__cxa_guard_release(ptr @_ZGVZN9grpc_core12_GLOBAL__N_120ExperimentsSingletonEvE11experiments) #17
  br label %12

12:                                               ; preds = %11, %6, %0
  %13 = call noundef nonnull align 1 dereferenceable(29) ptr @_ZN9grpc_core10NoDestructINS_12_GLOBAL__N_111ExperimentsEEdeEv(ptr noundef nonnull align 1 dereferenceable(29) @_ZZN9grpc_core12_GLOBAL__N_120ExperimentsSingletonEvE11experiments)
  ret ptr %13

14:                                               ; preds = %10, %9
  %15 = landingpad { ptr, i32 }
          cleanup
  %16 = extractvalue { ptr, i32 } %15, 0
  store ptr %16, ptr %2, align 8
  %17 = extractvalue { ptr, i32 } %15, 1
  store i32 %17, ptr %3, align 4
  call void @llvm.lifetime.end.p0(i64 29, ptr %1) #17
  call void @__cxa_guard_abort(ptr @_ZGVZN9grpc_core12_GLOBAL__N_120ExperimentsSingletonEvE11experiments) #17
  br label %18

18:                                               ; preds = %14
  %19 = load ptr, ptr %2, align 8
  %20 = load i32, ptr %3, align 4
  %21 = insertvalue { ptr, i32 } poison, ptr %19, 0
  %22 = insertvalue { ptr, i32 } %21, i32 %20, 1
  resume { ptr, i32 } %22
}

; Function Attrs: mustprogress uwtable
define noundef zeroext i1 @_ZN9grpc_core15ExperimentFlags17LoadFlagsAndCheckEm(i64 noundef %0) #0 align 2 {
  %2 = alloca i64, align 8
  %3 = alloca ptr, align 8
  %4 = alloca [8 x i64], align 16
  %5 = alloca i64, align 8
  %6 = alloca i64, align 8
  %7 = alloca i64, align 8
  %8 = alloca i64, align 8
  %9 = alloca i64, align 8
  store i64 %0, ptr %2, align 8, !tbaa !7
  call void @llvm.lifetime.start.p0(i64 8, ptr %3) #17
  %10 = call noundef nonnull align 1 dereferenceable(29) ptr @_ZN9grpc_core12_GLOBAL__N_120ExperimentsSingletonEv()
  store ptr %10, ptr %3, align 8, !tbaa !40
  call void @llvm.lifetime.start.p0(i64 64, ptr %4) #17
  call void @llvm.lifetime.start.p0(i64 8, ptr %5) #17
  store i64 0, ptr %5, align 8, !tbaa !7
  br label %11

11:                                               ; preds = %18, %1
  %12 = load i64, ptr %5, align 8, !tbaa !7
  %13 = icmp ult i64 %12, 8
  br i1 %13, label %15, label %14

14:                                               ; preds = %11
  call void @llvm.lifetime.end.p0(i64 8, ptr %5) #17
  br label %21

15:                                               ; preds = %11
  %16 = load i64, ptr %5, align 8, !tbaa !7
  %17 = getelementptr inbounds nuw [8 x i64], ptr %4, i64 0, i64 %16
  store i64 -9223372036854775808, ptr %17, align 8, !tbaa !7
  br label %18

18:                                               ; preds = %15
  %19 = load i64, ptr %5, align 8, !tbaa !7
  %20 = add i64 %19, 1
  store i64 %20, ptr %5, align 8, !tbaa !7
  br label %11, !llvm.loop !42

21:                                               ; preds = %14
  call void @llvm.lifetime.start.p0(i64 8, ptr %6) #17
  store i64 0, ptr %6, align 8, !tbaa !7
  br label %22

22:                                               ; preds = %45, %21
  %23 = load i64, ptr %6, align 8, !tbaa !7
  %24 = icmp ult i64 %23, 29
  br i1 %24, label %26, label %25

25:                                               ; preds = %22
  call void @llvm.lifetime.end.p0(i64 8, ptr %6) #17
  br label %48

26:                                               ; preds = %22
  %27 = load ptr, ptr %3, align 8, !tbaa !40
  %28 = getelementptr inbounds nuw %"struct.grpc_core::(anonymous namespace)::Experiments", ptr %27, i32 0, i32 0
  %29 = load i64, ptr %6, align 8, !tbaa !7
  %30 = getelementptr inbounds nuw [29 x i8], ptr %28, i64 0, i64 %29
  %31 = load i8, ptr %30, align 1, !tbaa !18, !range !20, !noundef !21
  %32 = trunc i8 %31 to i1
  br i1 %32, label %34, label %33

33:                                               ; preds = %26
  br label %45

34:                                               ; preds = %26
  call void @llvm.lifetime.start.p0(i64 8, ptr %7) #17
  %35 = load i64, ptr %6, align 8, !tbaa !7
  %36 = urem i64 %35, 63
  store i64 %36, ptr %7, align 8, !tbaa !7
  call void @llvm.lifetime.start.p0(i64 8, ptr %8) #17
  %37 = load i64, ptr %6, align 8, !tbaa !7
  %38 = udiv i64 %37, 63
  store i64 %38, ptr %8, align 8, !tbaa !7
  %39 = load i64, ptr %7, align 8, !tbaa !7
  %40 = shl i64 1, %39
  %41 = load i64, ptr %8, align 8, !tbaa !7
  %42 = getelementptr inbounds nuw [8 x i64], ptr %4, i64 0, i64 %41
  %43 = load i64, ptr %42, align 8, !tbaa !7
  %44 = or i64 %43, %40
  store i64 %44, ptr %42, align 8, !tbaa !7
  call void @llvm.lifetime.end.p0(i64 8, ptr %8) #17
  call void @llvm.lifetime.end.p0(i64 8, ptr %7) #17
  br label %45

45:                                               ; preds = %34, %33
  %46 = load i64, ptr %6, align 8, !tbaa !7
  %47 = add i64 %46, 1
  store i64 %47, ptr %6, align 8, !tbaa !7
  br label %22, !llvm.loop !43

48:                                               ; preds = %25
  call void @llvm.lifetime.start.p0(i64 8, ptr %9) #17
  store i64 0, ptr %9, align 8, !tbaa !7
  br label %49

49:                                               ; preds = %59, %48
  %50 = load i64, ptr %9, align 8, !tbaa !7
  %51 = icmp ult i64 %50, 8
  br i1 %51, label %53, label %52

52:                                               ; preds = %49
  call void @llvm.lifetime.end.p0(i64 8, ptr %9) #17
  br label %62

53:                                               ; preds = %49
  %54 = load i64, ptr %9, align 8, !tbaa !7
  %55 = getelementptr inbounds nuw [8 x %"struct.std::atomic"], ptr @_ZN9grpc_core15ExperimentFlags17experiment_flags_E, i64 0, i64 %54
  %56 = load i64, ptr %9, align 8, !tbaa !7
  %57 = getelementptr inbounds nuw [8 x i64], ptr %4, i64 0, i64 %56
  %58 = load i64, ptr %57, align 8, !tbaa !7
  call void @_ZNSt13__atomic_baseImE5storeEmSt12memory_order(ptr noundef nonnull align 8 dereferenceable(8) %55, i64 noundef %58, i32 noundef 0) #17
  br label %59

59:                                               ; preds = %53
  %60 = load i64, ptr %9, align 8, !tbaa !7
  %61 = add i64 %60, 1
  store i64 %61, ptr %9, align 8, !tbaa !7
  br label %49, !llvm.loop !44

62:                                               ; preds = %52
  %63 = load ptr, ptr %3, align 8, !tbaa !40
  %64 = getelementptr inbounds nuw %"struct.grpc_core::(anonymous namespace)::Experiments", ptr %63, i32 0, i32 0
  %65 = load i64, ptr %2, align 8, !tbaa !7
  %66 = getelementptr inbounds nuw [29 x i8], ptr %64, i64 0, i64 %65
  %67 = load i8, ptr %66, align 1, !tbaa !18, !range !20, !noundef !21
  %68 = trunc i8 %67 to i1
  call void @llvm.lifetime.end.p0(i64 64, ptr %4) #17
  call void @llvm.lifetime.end.p0(i64 8, ptr %3) #17
  ret i1 %68
}