; Function Attrs: mustprogress uwtable
define noundef zeroext i1 @_ZN9grpc_core15ExperimentFlags17LoadFlagsAndCheckEm(i64 noundef %0) local_unnamed_addr #0 align 2 personality ptr @__gxx_personality_v0 {
  %2 = alloca %"struct.grpc_core::(anonymous namespace)::Experiments", align 1
  %3 = alloca [8 x i64], align 16
  %4 = load atomic i8, ptr @_ZGVZN9grpc_core12_GLOBAL__N_120ExperimentsSingletonEvE11experiments acquire, align 8
  %5 = icmp eq i8 %4, 0
  br i1 %5, label %6, label %_ZN9grpc_core12_GLOBAL__N_120ExperimentsSingletonEv.exit, !prof !8

6:                                                ; preds = %1
  %7 = tail call i32 @__cxa_guard_acquire(ptr nonnull @_ZGVZN9grpc_core12_GLOBAL__N_120ExperimentsSingletonEvE11experiments) #26
  %.not.i = icmp eq i32 %7, 0
  br i1 %.not.i, label %_ZN9grpc_core12_GLOBAL__N_120ExperimentsSingletonEv.exit, label %8

8:                                                ; preds = %6
  call void @llvm.lifetime.start.p0(i64 29, ptr nonnull %2) #26
  invoke fastcc void @_ZN9grpc_core12_GLOBAL__N_133LoadExperimentsFromConfigVariableEv(ptr dead_on_unwind noalias writable align 1 %2)
          to label %9 unwind label %10

9:                                                ; preds = %8
  call void @llvm.memcpy.p0.p0.i64(ptr noundef nonnull align 1 dereferenceable(29) @_ZZN9grpc_core12_GLOBAL__N_120ExperimentsSingletonEvE11experiments, ptr noundef nonnull readonly align 1 dereferenceable(29) %2, i64 29, i1 false), !tbaa.struct !14
  call void @llvm.lifetime.end.p0(i64 29, ptr nonnull %2) #26
  tail call void @__cxa_guard_release(ptr nonnull @_ZGVZN9grpc_core12_GLOBAL__N_120ExperimentsSingletonEvE11experiments) #26
  br label %_ZN9grpc_core12_GLOBAL__N_120ExperimentsSingletonEv.exit

10:                                               ; preds = %8
  %11 = landingpad { ptr, i32 }
          cleanup
  call void @llvm.lifetime.end.p0(i64 29, ptr nonnull %2) #26
  tail call void @__cxa_guard_abort(ptr nonnull @_ZGVZN9grpc_core12_GLOBAL__N_120ExperimentsSingletonEvE11experiments) #26
  resume { ptr, i32 } %11

_ZN9grpc_core12_GLOBAL__N_120ExperimentsSingletonEv.exit: ; preds = %1, %6, %9
  call void @llvm.lifetime.start.p0(i64 64, ptr nonnull %3) #26
  br label %12

.preheader18:                                     ; preds = %12
  %.promoted = load i64, ptr %3, align 16
  br label %15

12:                                               ; preds = %_ZN9grpc_core12_GLOBAL__N_120ExperimentsSingletonEv.exit, %12
  %.01619 = phi i64 [ 0, %_ZN9grpc_core12_GLOBAL__N_120ExperimentsSingletonEv.exit ], [ %14, %12 ]
  %13 = getelementptr inbounds nuw [8 x i64], ptr %3, i64 0, i64 %.01619
  store i64 -9223372036854775808, ptr %13, align 8, !tbaa !37
  %14 = add nuw nsw i64 %.01619, 1
  %exitcond.not = icmp eq i64 %14, 8
  br i1 %exitcond.not, label %.preheader18, label %12, !llvm.loop !118

.preheader:                                       ; preds = %15
  store i64 %22, ptr %3, align 16
  br label %28

15:                                               ; preds = %.preheader18, %15
  %.01720 = phi i64 [ 0, %.preheader18 ], [ %23, %15 ]
  %16 = phi i64 [ %.promoted, %.preheader18 ], [ %22, %15 ]
  %17 = getelementptr inbounds nuw [29 x i8], ptr @_ZZN9grpc_core12_GLOBAL__N_120ExperimentsSingletonEvE11experiments, i64 0, i64 %.01720
  %18 = load i8, ptr %17, align 1, !tbaa !119, !range !31, !noundef !32
  %19 = trunc nuw i8 %18 to i1
  %20 = shl nuw nsw i64 1, %.01720
  %21 = select i1 %19, i64 %20, i64 0
  %22 = or i64 %16, %21
  %23 = add nuw nsw i64 %.01720, 1
  %exitcond22.not = icmp eq i64 %23, 29
  br i1 %exitcond22.not, label %.preheader, label %15, !llvm.loop !120

24:                                               ; preds = %28
  %25 = getelementptr inbounds nuw [29 x i8], ptr @_ZZN9grpc_core12_GLOBAL__N_120ExperimentsSingletonEvE11experiments, i64 0, i64 %0
  %26 = load i8, ptr %25, align 1, !tbaa !119, !range !31, !noundef !32
  %27 = trunc nuw i8 %26 to i1
  call void @llvm.lifetime.end.p0(i64 64, ptr nonnull %3) #26
  ret i1 %27

28:                                               ; preds = %.preheader, %28
  %.021 = phi i64 [ 0, %.preheader ], [ %32, %28 ]
  %29 = getelementptr inbounds nuw [8 x %"struct.std::atomic"], ptr @_ZN9grpc_core15ExperimentFlags17experiment_flags_E, i64 0, i64 %.021
  %30 = getelementptr inbounds nuw [8 x i64], ptr %3, i64 0, i64 %.021
  %31 = load i64, ptr %30, align 8, !tbaa !37
  store atomic i64 %31, ptr %29 monotonic, align 8
  %32 = add nuw nsw i64 %.021, 1
  %exitcond23.not = icmp eq i64 %32, 8
  br i1 %exitcond23.not, label %24, label %28, !llvm.loop !121
}